ccopy_reg
_reconstructor
p0
(cpandas.core.frame
DataFrame
p1
c__builtin__
object
p2
Ntp3
Rp4
(dp5
S'_metadata'
p6
(lp7
sS'_typ'
p8
S'dataframe'
p9
sS'_data'
p10
g0
(cpandas.core.internals
BlockManager
p11
g2
Ntp12
Rp13
((lp14
cpandas.core.indexes.base
_new_Index
p15
(cpandas.core.indexes.base
Index
p16
(dp17
S'data'
p18
cnumpy.core.multiarray
_reconstruct
p19
(cnumpy
ndarray
p20
(I0
tp21
S'b'
p22
tp23
Rp24
(I1
(I1
tp25
cnumpy
dtype
p26
(S'O8'
p27
I0
I1
tp28
Rp29
(I3
S'|'
p30
NNNI-1
I-1
I63
tp31
bI00
(lp32
S'\te\tf\ti\trpE\trpM\trpSE\trpSM\tse'
p33
atp34
bsS'name'
p35
Nstp36
Rp37
ag15
(cpandas.core.indexes.range
RangeIndex
p38
(dp39
S'start'
p40
I0
sS'step'
p41
I1
sS'stop'
p42
I8
sg35
Nstp43
Rp44
a(lp45
g19
(g20
(I0
tp46
g22
tp47
Rp48
(I1
(I1
I8
tp49
g29
I00
(lp50
S'e\t0.282\t0.641\t\t0.003\t\t\t\t0.073'
p51
aS'f\t0.040\t0.795\t0.015\t0.001\t\t0.055\t0.025\t0.068'
p52
aS'i\t\t\t0.283\t\t\t0.451\t0.267\t'
p53
aS'rpE\t0.037\t0.819\t0.012\t0.004\t\t0.010\t0.051\t0.068'
p54
aS'rpM\t0.008\t\t0.005\t0.433\t0.525\t0.017\t0.011\t'
p55
aS'rpSE\t0.041\t0.828\t0.012\t0.008\t\t0.071\t0.011\t0.029'
p56
aS'rpSM\t0.006\t\t0.004\t0.548\t0.409\t0.031\t0.002\t'
p57
aS's\t0.074\t0.926\t\t\t\t\t\t'
p58
atp59
ba(lp60
g15
(g16
(dp61
g18
g19
(g20
(I0
tp62
g22
tp63
Rp64
(I1
(I1
tp65
g29
I00
(lp66
g33
atp67
bsg35
Nstp68
Rp69
a(dp70
S'0.14.1'
p71
(dp72
S'axes'
p73
g14
sS'blocks'
p74
(lp75
(dp76
S'mgr_locs'
p77
c__builtin__
slice
p78
(I0
I1
I1
tp79
Rp80
sS'values'
p81
g48
sasstp82
bsb.